target datalayout = "e-m:e-p270:32:32-p271:32:32-p272:64:64-i64:64-i128:128-f80:128-n8:16:32:64-S128"
target triple = "x86_64-pc-linux-gnu"

%struct.grpc_closure = type { %union.anon.2, ptr, ptr, %union.anon.3 }
%union.anon.2 = type { ptr }
%union.anon.3 = type { i64 }
%"class.std::basic_string_view" = type { i64, ptr }
%struct.fd_node = type <{ ptr, %struct.grpc_closure, %struct.grpc_closure, ptr, ptr, i8, i8, i8, [5 x i8] }>
%"class.absl::lts_20240722::Status" = type { i64 }
%"class.grpc_core::DebugLocation" = type { i8 }
%"class.std::vector" = type { %"struct.std::_Vector_base" }
%"struct.std::_Vector_base" = type { %"struct.std::_Vector_base<absl::lts_20240722::Status, std::allocator<absl::lts_20240722::Status>>::_Vector_impl" }
%"struct.std::_Vector_base<absl::lts_20240722::Status, std::allocator<absl::lts_20240722::Status>>::_Vector_impl" = type { %"struct.std::_Vector_base<absl::lts_20240722::Status, std::allocator<absl::lts_20240722::Status>>::_Vector_impl_data" }
%"struct.std::_Vector_base<absl::lts_20240722::Status, std::allocator<absl::lts_20240722::Status>>::_Vector_impl_data" = type { ptr, ptr, ptr }

@.str.1 = private unnamed_addr constant [137 x i8] c"generated/home/dtcxzyw/WorkSpace/Projects/compilers/llvm-opt-benchmark/bench/grpc/grpc/src/core/resolver/dns/c_ares/grpc_ares_wrapper.cc\00", align 1

; Function Attrs: mustprogress nounwind uwtable
define linkonce_odr void @_ZNSt15__new_allocatorIN4absl12lts_202407226StatusEEC2Ev(ptr noundef nonnull align 1 dereferenceable(1) %0) unnamed_addr #6 comdat align 2 {
  %2 = alloca ptr, align 8
  store ptr %0, ptr %2, align 8, !tbaa !269
  ret void
}

; Function Attrs: mustprogress nounwind uwtable
define linkonce_odr void @_ZNSt12_Vector_baseIN4absl12lts_202407226StatusESaIS2_EE17_Vector_impl_dataC2Ev(ptr noundef nonnull align 8 dereferenceable(24) %0) unnamed_addr #6 comdat align 2 {
  %2 = alloca ptr, align 8
  store ptr %0, ptr %2, align 8, !tbaa !266
  %3 = load ptr, ptr %2, align 8
  %4 = getelementptr inbounds nuw %"struct.std::_Vector_base<absl::lts_20240722::Status, std::allocator<absl::lts_20240722::Status>>::_Vector_impl_data", ptr %3, i32 0, i32 0
  store ptr null, ptr %4, align 8, !tbaa !103
  %5 = getelementptr inbounds nuw %"struct.std::_Vector_base<absl::lts_20240722::Status, std::allocator<absl::lts_20240722::Status>>::_Vector_impl_data", ptr %3, i32 0, i32 1
  store ptr null, ptr %5, align 8, !tbaa !105
  %6 = getelementptr inbounds nuw %"struct.std::_Vector_base<absl::lts_20240722::Status, std::allocator<absl::lts_20240722::Status>>::_Vector_impl_data", ptr %3, i32 0, i32 2
  store ptr null, ptr %6, align 8, !tbaa !268
  ret void
}

; Function Attrs: mustprogress nounwind uwtable
define linkonce_odr void @_ZNSaIN4absl12lts_202407226StatusEEC2Ev(ptr noundef nonnull align 1 dereferenceable(1) %0) unnamed_addr #6 comdat align 2 {
  %2 = alloca ptr, align 8
  store ptr %0, ptr %2, align 8, !tbaa !264
  %3 = load ptr, ptr %2, align 8
  call void @_ZNSt15__new_allocatorIN4absl12lts_202407226StatusEEC2Ev(ptr noundef nonnull align 1 dereferenceable(1) %3) #3
  ret void
}

; Function Attrs: mustprogress nounwind uwtable
define linkonce_odr void @_ZNSt12_Vector_baseIN4absl12lts_202407226StatusESaIS2_EE12_Vector_implC2Ev(ptr noundef nonnull align 8 dereferenceable(24) %0) unnamed_addr #6 comdat align 2 {
  %2 = alloca ptr, align 8
  store ptr %0, ptr %2, align 8, !tbaa !262
  %3 = load ptr, ptr %2, align 8
  call void @_ZNSaIN4absl12lts_202407226StatusEEC2Ev(ptr noundef nonnull align 1 dereferenceable(1) %3) #3
  call void @_ZNSt12_Vector_baseIN4absl12lts_202407226StatusESaIS2_EE17_Vector_impl_dataC2Ev(ptr noundef nonnull align 8 dereferenceable(24) %3) #3
  ret void
}

; Function Attrs: mustprogress nounwind uwtable
define linkonce_odr void @_ZNSt12_Vector_baseIN4absl12lts_202407226StatusESaIS2_EEC2Ev(ptr noundef nonnull align 8 dereferenceable(24) %0) unnamed_addr #6 comdat align 2 {
  %2 = alloca ptr, align 8
  store ptr %0, ptr %2, align 8, !tbaa !260
  %3 = load ptr, ptr %2, align 8
  %4 = getelementptr inbounds nuw %"struct.std::_Vector_base", ptr %3, i32 0, i32 0
  call void @_ZNSt12_Vector_baseIN4absl12lts_202407226StatusESaIS2_EE12_Vector_implC2Ev(ptr noundef nonnull align 8 dereferenceable(24) %4) #3
  ret void
}

; Function Attrs: mustprogress nounwind uwtable
define linkonce_odr noundef i64 @_ZNSt11char_traitsIcE6lengthEPKc(ptr noundef %0) #6 comdat align 2 {
  %2 = alloca ptr, align 8
  store ptr %0, ptr %2, align 8, !tbaa !43
  %3 = load ptr, ptr %2, align 8, !tbaa !43
  %4 = call i64 @strlen(ptr noundef %3) #3
  ret i64 %4
}

; Function Attrs: mustprogress nounwind uwtable
define linkonce_odr void @_ZNSt6vectorIN4absl12lts_202407226StatusESaIS2_EEC2Ev(ptr noundef nonnull align 8 dereferenceable(24) %0) unnamed_addr #6 comdat align 2 {
  %2 = alloca ptr, align 8
  store ptr %0, ptr %2, align 8, !tbaa !101
  %3 = load ptr, ptr %2, align 8
  call void @_ZNSt12_Vector_baseIN4absl12lts_202407226StatusESaIS2_EEC2Ev(ptr noundef nonnull align 8 dereferenceable(24) %3) #3
  ret void
}

; Function Attrs: mustprogress nounwind uwtable
define linkonce_odr void @_ZN9grpc_core13DebugLocationC2EPKci(ptr noundef nonnull align 1 dereferenceable(1) %0, ptr noundef %1, i32 noundef %2) unnamed_addr #6 comdat align 2 {
  %4 = alloca ptr, align 8
  %5 = alloca ptr, align 8
  %6 = alloca i32, align 4
  store ptr %0, ptr %4, align 8, !tbaa !99
  store ptr %1, ptr %5, align 8, !tbaa !43
  store i32 %2, ptr %6, align 4, !tbaa !29
  ret void
}

; Function Attrs: mustprogress nounwind uwtable
define linkonce_odr void @_ZNSt17basic_string_viewIcSt11char_traitsIcEEC2EPKc(ptr noundef nonnull align 8 dereferenceable(16) %0, ptr noundef nonnull %1) unnamed_addr #6 comdat align 2 {
  %3 = alloca ptr, align 8
  %4 = alloca ptr, align 8
  store ptr %0, ptr %3, align 8, !tbaa !148
  store ptr %1, ptr %4, align 8, !tbaa !43
  %5 = load ptr, ptr %3, align 8
  %6 = getelementptr inbounds nuw %"class.std::basic_string_view", ptr %5, i32 0, i32 0
  %7 = load ptr, ptr %4, align 8, !tbaa !43
  %8 = call noundef i64 @_ZNSt11char_traitsIcE6lengthEPKc(ptr noundef %7)
  store i64 %8, ptr %6, align 8, !tbaa !150
  %9 = getelementptr inbounds nuw %"class.std::basic_string_view", ptr %5, i32 0, i32 1
  %10 = load ptr, ptr %4, align 8, !tbaa !43
  store ptr %10, ptr %9, align 8, !tbaa !153
  ret void
}

; Function Attrs: mustprogress uwtable
define internal void @_ZL23fd_node_shutdown_lockedP7fd_nodePKc(ptr noundef %0, ptr noundef %1) #4 personality ptr @__gxx_personality_v0 {
  %3 = alloca ptr, align 8
  %4 = alloca ptr, align 8
  %5 = alloca %"class.absl::lts_20240722::Status", align 8
  %6 = alloca %"class.std::basic_string_view", align 8
  %7 = alloca %"class.grpc_core::DebugLocation", align 1
  %8 = alloca %"class.std::vector", align 8
  %9 = alloca ptr, align 8
  %10 = alloca i32, align 4
  store ptr %0, ptr %3, align 8, !tbaa !37
  store ptr %1, ptr %4, align 8, !tbaa !43
  %11 = load ptr, ptr %3, align 8, !tbaa !37
  %12 = getelementptr inbounds nuw %struct.fd_node, ptr %11, i32 0, i32 7
  %13 = load i8, ptr %12, align 2, !tbaa !45, !range !46, !noundef !47
  %14 = trunc i8 %13 to i1
  br i1 %14, label %40, label %15

15:                                               ; preds = %2
  %16 = load ptr, ptr %3, align 8, !tbaa !37
  %17 = getelementptr inbounds nuw %struct.fd_node, ptr %16, i32 0, i32 7
  store i8 1, ptr %17, align 2, !tbaa !45
  %18 = load ptr, ptr %3, align 8, !tbaa !37
  %19 = getelementptr inbounds nuw %struct.fd_node, ptr %18, i32 0, i32 4
  %20 = load ptr, ptr %19, align 8, !tbaa !48
  %21 = load ptr, ptr %4, align 8, !tbaa !43
  call void @_ZNSt17basic_string_viewIcSt11char_traitsIcEEC2EPKc(ptr noundef nonnull align 8 dereferenceable(16) %6, ptr noundef %21) #3
  call void @llvm.lifetime.start.p0(i64 1, ptr %7) #3
  call void @_ZN9grpc_core13DebugLocationC2EPKci(ptr noundef nonnull align 1 dereferenceable(1) %7, ptr noundef @.str.1, i32 noundef 241)
  call void @llvm.memset.p0.i64(ptr align 8 %8, i8 0, i64 24, i1 false)
  call void @_ZNSt6vectorIN4absl12lts_202407226StatusESaIS2_EEC2Ev(ptr noundef nonnull align 8 dereferenceable(24) %8) #3
  %22 = getelementptr inbounds nuw { i64, ptr }, ptr %6, i32 0, i32 0
  %23 = load i64, ptr %22, align 8
  %24 = getelementptr inbounds nuw { i64, ptr }, ptr %6, i32 0, i32 1
  %25 = load ptr, ptr %24, align 8
  invoke void @_ZN9grpc_core12StatusCreateEN4absl12lts_2024072210StatusCodeESt17basic_string_viewIcSt11char_traitsIcEERKNS_13DebugLocationESt6vectorINS1_6StatusESaISB_EE(ptr dead_on_unwind writable sret(%"class.absl::lts_20240722::Status") align 8 %5, i32 noundef 2, i64 %23, ptr %25, ptr noundef nonnull align 1 dereferenceable(1) %7, ptr noundef %8)
          to label %26 unwind label %31

26:                                               ; preds = %15
  %27 = load ptr, ptr %20, align 8, !tbaa !49
  %28 = getelementptr inbounds ptr, ptr %27, i64 5
  %29 = load ptr, ptr %28, align 8
  invoke void %29(ptr noundef nonnull align 8 dereferenceable(8) %20, ptr noundef %5)
          to label %30 unwind label %35

30:                                               ; preds = %26
  call void @_ZN4absl12lts_202407226StatusD2Ev(ptr noundef nonnull align 8 dereferenceable(8) %5) #3
  call void @_ZNSt6vectorIN4absl12lts_202407226StatusESaIS2_EED2Ev(ptr noundef nonnull align 8 dereferenceable(24) %8) #3
  call void @llvm.lifetime.end.p0(i64 1, ptr %7) #3
  br label %40

31:                                               ; preds = %15
  %32 = landingpad { ptr, i32 }
          cleanup
  %33 = extractvalue { ptr, i32 } %32, 0
  store ptr %33, ptr %9, align 8
  %34 = extractvalue { ptr, i32 } %32, 1
  store i32 %34, ptr %10, align 4
  br label %39

35:                                               ; preds = %26
  %36 = landingpad { ptr, i32 }
          cleanup
  %37 = extractvalue { ptr, i32 } %36, 0
  store ptr %37, ptr %9, align 8
  %38 = extractvalue { ptr, i32 } %36, 1
  store i32 %38, ptr %10, align 4
  call void @_ZN4absl12lts_202407226StatusD2Ev(ptr noundef nonnull align 8 dereferenceable(8) %5) #3
  br label %39

39:                                               ; preds = %35, %31
  call void @_ZNSt6vectorIN4absl12lts_202407226StatusESaIS2_EED2Ev(ptr noundef nonnull align 8 dereferenceable(24) %8) #3
  call void @llvm.lifetime.end.p0(i64 1, ptr %7) #3
  br label %41

40:                                               ; preds = %30, %2
  ret void

41:                                               ; preds = %39
  %42 = load ptr, ptr %9, align 8
  %43 = load i32, ptr %10, align 4
  %44 = insertvalue { ptr, i32 } poison, ptr %42, 0
  %45 = insertvalue { ptr, i32 } %44, i32 %43, 1
  resume { ptr, i32 } %45
}