; Function Attrs: mustprogress uwtable
define internal fastcc void @_ZL23fd_node_shutdown_lockedP7fd_nodePKc(ptr noundef nonnull captures(none) %0, ptr noundef %1) unnamed_addr #3 personality ptr @__gxx_personality_v0 {
  %3 = alloca %"class.absl::lts_20240722::Status", align 8
  %4 = alloca %"class.grpc_core::DebugLocation", align 1
  %5 = alloca %"class.std::vector", align 8
  %6 = getelementptr inbounds nuw i8, ptr %0, i64 90
  %7 = load i8, ptr %6, align 2, !tbaa !44, !range !47, !noundef !48
  %8 = trunc nuw i8 %7 to i1
  br i1 %8, label %48, label %9

9:                                                ; preds = %2
  store i8 1, ptr %6, align 2, !tbaa !44
  %10 = getelementptr inbounds nuw i8, ptr %0, i64 80
  %11 = load ptr, ptr %10, align 8, !tbaa !49
  %12 = tail call noundef i64 @strlen(ptr noundef nonnull dereferenceable(1) %1) #28
  call void @llvm.lifetime.start.p0(i64 1, ptr nonnull %4) #28
  call void @llvm.memset.p0.i64(ptr noundef nonnull align 8 dereferenceable(24) %5, i8 0, i64 24, i1 false)
  invoke void @_ZN9grpc_core12StatusCreateEN4absl12lts_2024072210StatusCodeESt17basic_string_viewIcSt11char_traitsIcEERKNS_13DebugLocationESt6vectorINS1_6StatusESaISB_EE(ptr dead_on_unwind nonnull writable sret(%"class.absl::lts_20240722::Status") align 8 %3, i32 noundef 2, i64 %12, ptr nonnull %1, ptr noundef nonnull align 1 dereferenceable(1) %4, ptr noundef nonnull %5)
          to label %13 unwind label %43

13:                                               ; preds = %9
  %14 = load ptr, ptr %11, align 8, !tbaa !40
  %15 = getelementptr inbounds nuw i8, ptr %14, i64 40
  %16 = load ptr, ptr %15, align 8
  invoke void %16(ptr noundef nonnull align 8 dereferenceable(8) %11, ptr noundef nonnull %3)
          to label %17 unwind label %45

17:                                               ; preds = %13
  %18 = load i64, ptr %3, align 8, !tbaa !50
  %19 = and i64 %18, 1
  %.not.i.i = icmp eq i64 %19, 0
  br i1 %.not.i.i, label %20, label %_ZN4absl12lts_202407226StatusD2Ev.exit

20:                                               ; preds = %17
  %21 = inttoptr i64 %18 to ptr
  invoke void @_ZNK4absl12lts_2024072215status_internal9StatusRep5UnrefEv(ptr noundef nonnull align 8 dereferenceable(48) %21)
          to label %_ZN4absl12lts_202407226StatusD2Ev.exit unwind label %22

22:                                               ; preds = %20
  %23 = landingpad { ptr, i32 }
          catch ptr null
  %24 = extractvalue { ptr, i32 } %23, 0
  call void @__clang_call_terminate(ptr %24) #31
  unreachable

_ZN4absl12lts_202407226StatusD2Ev.exit:           ; preds = %17, %20
  %25 = load ptr, ptr %5, align 8, !tbaa !52
  %26 = getelementptr inbounds nuw i8, ptr %5, i64 8
  %27 = load ptr, ptr %26, align 8, !tbaa !55
  %.not4.i.i.i.i = icmp eq ptr %25, %27
  br i1 %.not4.i.i.i.i, label %_ZSt8_DestroyIPN4absl12lts_202407226StatusES2_EvT_S4_RSaIT0_E.exit.i, label %.lr.ph.i.i.i.i

.lr.ph.i.i.i.i:                                   ; preds = %_ZN4absl12lts_202407226StatusD2Ev.exit, %_ZSt8_DestroyIN4absl12lts_202407226StatusEEvPT_.exit.i.i.i.i
  %.05.i.i.i.i = phi ptr [ %35, %_ZSt8_DestroyIN4absl12lts_202407226StatusEEvPT_.exit.i.i.i.i ], [ %25, %_ZN4absl12lts_202407226StatusD2Ev.exit ]
  %28 = load i64, ptr %.05.i.i.i.i, align 8, !tbaa !50
  %29 = and i64 %28, 1
  %.not.i.i.i.i.i.i.i = icmp eq i64 %29, 0
  br i1 %.not.i.i.i.i.i.i.i, label %30, label %_ZSt8_DestroyIN4absl12lts_202407226StatusEEvPT_.exit.i.i.i.i

30:                                               ; preds = %.lr.ph.i.i.i.i
  %31 = inttoptr i64 %28 to ptr
  invoke void @_ZNK4absl12lts_2024072215status_internal9StatusRep5UnrefEv(ptr noundef nonnull align 8 dereferenceable(48) %31)
          to label %_ZSt8_DestroyIN4absl12lts_202407226StatusEEvPT_.exit.i.i.i.i unwind label %32

32:                                               ; preds = %30
  %33 = landingpad { ptr, i32 }
          catch ptr null
  %34 = extractvalue { ptr, i32 } %33, 0
  call void @__clang_call_terminate(ptr %34) #31
  unreachable

_ZSt8_DestroyIN4absl12lts_202407226StatusEEvPT_.exit.i.i.i.i: ; preds = %30, %.lr.ph.i.i.i.i
  %35 = getelementptr inbounds nuw i8, ptr %.05.i.i.i.i, i64 8
  %.not.i.i.i.i = icmp eq ptr %35, %27
  br i1 %.not.i.i.i.i, label %_ZSt8_DestroyIPN4absl12lts_202407226StatusES2_EvT_S4_RSaIT0_E.exitthread-pre-split.i, label %.lr.ph.i.i.i.i, !llvm.loop !56

_ZSt8_DestroyIPN4absl12lts_202407226StatusES2_EvT_S4_RSaIT0_E.exitthread-pre-split.i: ; preds = %_ZSt8_DestroyIN4absl12lts_202407226StatusEEvPT_.exit.i.i.i.i
  %.pr.i = load ptr, ptr %5, align 8, !tbaa !52
  br label %_ZSt8_DestroyIPN4absl12lts_202407226StatusES2_EvT_S4_RSaIT0_E.exit.i

_ZSt8_DestroyIPN4absl12lts_202407226StatusES2_EvT_S4_RSaIT0_E.exit.i: ; preds = %_ZSt8_DestroyIPN4absl12lts_202407226StatusES2_EvT_S4_RSaIT0_E.exitthread-pre-split.i, %_ZN4absl12lts_202407226StatusD2Ev.exit
  %36 = phi ptr [ %.pr.i, %_ZSt8_DestroyIPN4absl12lts_202407226StatusES2_EvT_S4_RSaIT0_E.exitthread-pre-split.i ], [ %25, %_ZN4absl12lts_202407226StatusD2Ev.exit ]
  %.not.i.i.i = icmp eq ptr %36, null
  br i1 %.not.i.i.i, label %_ZNSt6vectorIN4absl12lts_202407226StatusESaIS2_EED2Ev.exit, label %37

37:                                               ; preds = %_ZSt8_DestroyIPN4absl12lts_202407226StatusES2_EvT_S4_RSaIT0_E.exit.i
  %38 = getelementptr inbounds nuw i8, ptr %5, i64 16
  %39 = load ptr, ptr %38, align 8, !tbaa !57
  %40 = ptrtoint ptr %39 to i64
  %41 = ptrtoint ptr %36 to i64
  %42 = sub i64 %40, %41
  call void @_ZdlPvm(ptr noundef nonnull %36, i64 noundef %42) #32
  br label %_ZNSt6vectorIN4absl12lts_202407226StatusESaIS2_EED2Ev.exit

_ZNSt6vectorIN4absl12lts_202407226StatusESaIS2_EED2Ev.exit: ; preds = %_ZSt8_DestroyIPN4absl12lts_202407226StatusES2_EvT_S4_RSaIT0_E.exit.i, %37
  call void @llvm.lifetime.end.p0(i64 1, ptr nonnull %4) #28
  br label %48

43:                                               ; preds = %9
  %44 = landingpad { ptr, i32 }
          cleanup
  br label %47

45:                                               ; preds = %13
  %46 = landingpad { ptr, i32 }
          cleanup
  call void @_ZN4absl12lts_202407226StatusD2Ev(ptr noundef nonnull align 8 dereferenceable(8) %3) #28
  br label %47

47:                                               ; preds = %45, %43
  %.pn = phi { ptr, i32 } [ %46, %45 ], [ %44, %43 ]
  call void @_ZNSt6vectorIN4absl12lts_202407226StatusESaIS2_EED2Ev(ptr noundef nonnull align 8 dereferenceable(24) %5) #28
  call void @llvm.lifetime.end.p0(i64 1, ptr nonnull %4) #28
  resume { ptr, i32 } %.pn

48:                                               ; preds = %_ZNSt6vectorIN4absl12lts_202407226StatusESaIS2_EED2Ev.exit, %2
  ret void
}